target datalayout = "e-m:e-p270:32:32-p271:32:32-p272:64:64-i64:64-i128:128-f80:128-n8:16:32:64-S128"
target triple = "x86_64-pc-linux-gnu"

%struct.AVFilterContext = type { ptr, ptr, ptr, ptr, ptr, i32, ptr, ptr, i32, ptr, ptr, i32, i32, ptr, ptr, ptr, ptr, i32, ptr, i32, i32 }
%struct.FadeContext = type { ptr, i32, i32, i32, i32, i32, i32, i32, i32, i32, i32, i32, i8, i8, [4 x i8], i32, i32, i64, i64, i64, i64, i32, [4 x i8], i32, ptr, ptr, ptr }

@query_formats.pix_fmts_rgb = internal constant [8 x i32] [i32 2, i32 3, i32 25, i32 27, i32 26, i32 28, i32 71, i32 -1], align 16
@query_formats.pix_fmts_alpha = internal constant [20 x i32] [i32 33, i32 78, i32 79, i32 81, i32 83, i32 85, i32 87, i32 89, i32 91, i32 185, i32 187, i32 93, i32 95, i32 97, i32 25, i32 27, i32 26, i32 28, i32 111, i32 -1], align 16
@query_formats.pix_fmts_rgba = internal constant [6 x i32] [i32 25, i32 27, i32 26, i32 28, i32 111, i32 -1], align 16

; Function Attrs: nounwind uwtable
define internal i32 @query_formats(ptr noundef %0, ptr noundef %1, ptr noundef %2) #1 {
  %4 = alloca ptr, align 8
  %5 = alloca ptr, align 8
  %6 = alloca ptr, align 8
  %7 = alloca ptr, align 8
  %8 = alloca ptr, align 8
  store ptr %0, ptr %4, align 8, !tbaa !4
  store ptr %1, ptr %5, align 8, !tbaa !35
  store ptr %2, ptr %6, align 8, !tbaa !35
  call void @llvm.lifetime.start.p0(i64 8, ptr %7) #11
  %9 = load ptr, ptr %4, align 8, !tbaa !4
  %10 = getelementptr inbounds nuw %struct.AVFilterContext, ptr %9, i32 0, i32 9
  %11 = load ptr, ptr %10, align 8, !tbaa !9
  store ptr %11, ptr %7, align 8, !tbaa !22
  call void @llvm.lifetime.start.p0(i64 8, ptr %8) #11
  %12 = load ptr, ptr %7, align 8, !tbaa !22
  %13 = getelementptr inbounds nuw %struct.FadeContext, ptr %12, i32 0, i32 15
  %14 = load i32, ptr %13, align 4, !tbaa !32
  %15 = icmp ne i32 %14, 0
  br i1 %15, label %16, label %24

16:                                               ; preds = %3
  %17 = load ptr, ptr %7, align 8, !tbaa !22
  %18 = getelementptr inbounds nuw %struct.FadeContext, ptr %17, i32 0, i32 23
  %19 = load i32, ptr %18, align 8, !tbaa !34
  %20 = icmp ne i32 %19, 0
  br i1 %20, label %21, label %22

21:                                               ; preds = %16
  store ptr @query_formats.pix_fmts_alpha, ptr %8, align 8, !tbaa !37
  br label %23

22:                                               ; preds = %16
  store ptr @query_formats.pix_fmts_rgba, ptr %8, align 8, !tbaa !37
  br label %23

23:                                               ; preds = %22, %21
  br label %32

24:                                               ; preds = %3
  %25 = load ptr, ptr %7, align 8, !tbaa !22
  %26 = getelementptr inbounds nuw %struct.FadeContext, ptr %25, i32 0, i32 23
  %27 = load i32, ptr %26, align 8, !tbaa !34
  %28 = icmp ne i32 %27, 0
  br i1 %28, label %29, label %30

29:                                               ; preds = %24
  store ptr @query_formats.pix_fmts, ptr %8, align 8, !tbaa !37
  br label %31

30:                                               ; preds = %24
  store ptr @query_formats.pix_fmts_rgb, ptr %8, align 8, !tbaa !37
  br label %31

31:                                               ; preds = %30, %29
  br label %32

32:                                               ; preds = %31, %23
  %33 = load ptr, ptr %4, align 8, !tbaa !4
  %34 = load ptr, ptr %5, align 8, !tbaa !35
  %35 = load ptr, ptr %6, align 8, !tbaa !35
  %36 = load ptr, ptr %8, align 8, !tbaa !37
  %37 = call i32 @ff_set_common_formats_from_list2(ptr noundef %33, ptr noundef %34, ptr noundef %35, ptr noundef %36)
  call void @llvm.lifetime.end.p0(i64 8, ptr %8) #11
  call void @llvm.lifetime.end.p0(i64 8, ptr %7) #11
  ret i32 %37
}