; Function Attrs: nounwind uwtable
define internal i32 @query_formats(ptr noundef %0, ptr noundef %1, ptr noundef %2) #1 {
  %4 = getelementptr inbounds nuw i8, ptr %0, i64 72
  %5 = load ptr, ptr %4, align 8, !tbaa !4
  %6 = getelementptr inbounds nuw i8, ptr %5, i64 60
  %7 = load i32, ptr %6, align 4, !tbaa !28
  %.not = icmp eq i32 %7, 0
  %8 = getelementptr inbounds nuw i8, ptr %5, i64 112
  %9 = load i32, ptr %8, align 8, !tbaa !30
  %.not8 = icmp eq i32 %9, 0
  %query_formats.pix_fmts_rgba.query_formats.pix_fmts_alpha = select i1 %.not8, ptr @query_formats.pix_fmts_rgba, ptr @query_formats.pix_fmts_alpha
  %query_formats.pix_fmts_rgb.query_formats.pix_fmts = select i1 %.not8, ptr @query_formats.pix_fmts_rgb, ptr @query_formats.pix_fmts
  %.0 = select i1 %.not, ptr %query_formats.pix_fmts_rgb.query_formats.pix_fmts, ptr %query_formats.pix_fmts_rgba.query_formats.pix_fmts_alpha
  %10 = tail call i32 @ff_set_common_formats_from_list2(ptr noundef nonnull %0, ptr noundef %1, ptr noundef %2, ptr noundef nonnull %.0) #9
  ret i32 %10
}